target datalayout = "e-m:e-p270:32:32-p271:32:32-p272:64:64-i64:64-i128:128-f80:128-n8:16:32:64-S128"
target triple = "x86_64-pc-linux-gnu"

@fp_gtk_widget_get_style_context = internal global ptr null, align 8
@fp_gtk_style_context_set_state = internal global ptr null, align 8
@fp_gtk_style_context_save = internal global ptr null, align 8
@fp_gtk_style_context_restore = internal global ptr null, align 8
@fp_gtk_render_arrow = internal global ptr null, align 8
@fp_gtk_arrow_new = internal global ptr null, align 8
@fp_gtk_container_add = internal global ptr null, align 8
@fp_gtk_widget_realize = internal global ptr null, align 8
@fp_gtk_arrow_set = internal global ptr null, align 8
@gtk3_widgets = internal global [42 x ptr] zeroinitializer, align 16
@cr = internal global ptr null, align 8
@gtk3_widget = internal global ptr null, align 8
@gtk3_fixed = internal global ptr null, align 8

; Function Attrs: nounwind uwtable
define internal i32 @get_gtk_flags(i32 noundef %0) #0 {
  %2 = alloca i32, align 4
  %3 = alloca i32, align 4
  store i32 %0, ptr %2, align 4
  store i32 0, ptr %3, align 4
  %4 = load i32, ptr %2, align 4
  switch i32 %4, label %20 [
    i32 2, label %5
    i32 3, label %8
    i32 4, label %11
    i32 1, label %14
    i32 6, label %17
  ]

5:                                                ; preds = %1
  %6 = load i32, ptr %3, align 4
  %7 = or i32 %6, 2
  store i32 %7, ptr %3, align 4
  br label %21

8:                                                ; preds = %1
  %9 = load i32, ptr %3, align 4
  %10 = or i32 %9, 4
  store i32 %10, ptr %3, align 4
  br label %21

11:                                               ; preds = %1
  %12 = load i32, ptr %3, align 4
  %13 = or i32 %12, 8
  store i32 %13, ptr %3, align 4
  br label %21

14:                                               ; preds = %1
  %15 = load i32, ptr %3, align 4
  %16 = or i32 %15, 1
  store i32 %16, ptr %3, align 4
  br label %21

17:                                               ; preds = %1
  %18 = load i32, ptr %3, align 4
  %19 = or i32 %18, 32
  store i32 %19, ptr %3, align 4
  br label %21

20:                                               ; preds = %1
  br label %21

21:                                               ; preds = %20, %17, %14, %11, %8, %5
  %22 = load i32, ptr %3, align 4
  ret i32 %22
}

; Function Attrs: nounwind uwtable
define internal ptr @gtk3_get_arrow(i32 noundef %0, i32 noundef %1) #0 {
  %3 = alloca i32, align 4
  %4 = alloca i32, align 4
  %5 = alloca ptr, align 8
  store i32 %0, ptr %3, align 4
  store i32 %1, ptr %4, align 4
  store ptr null, ptr %5, align 8
  %6 = load ptr, ptr @gtk3_widgets, align 16
  %7 = icmp eq ptr null, %6
  br i1 %7, label %8, label %18

8:                                                ; preds = %2
  %9 = load ptr, ptr @fp_gtk_arrow_new, align 8
  %10 = load i32, ptr %3, align 4
  %11 = load i32, ptr %4, align 4
  %12 = call ptr %9(i32 noundef %10, i32 noundef %11)
  store ptr %12, ptr @gtk3_widgets, align 16
  %13 = load ptr, ptr @fp_gtk_container_add, align 8
  %14 = load ptr, ptr @gtk3_fixed, align 8
  %15 = load ptr, ptr @gtk3_widgets, align 16
  call void %13(ptr noundef %14, ptr noundef %15)
  %16 = load ptr, ptr @fp_gtk_widget_realize, align 8
  %17 = load ptr, ptr @gtk3_widgets, align 16
  call void %16(ptr noundef %17)
  br label %18

18:                                               ; preds = %8, %2
  %19 = load ptr, ptr @gtk3_widgets, align 16
  store ptr %19, ptr %5, align 8
  %20 = load ptr, ptr @fp_gtk_arrow_set, align 8
  %21 = load ptr, ptr %5, align 8
  %22 = load i32, ptr %3, align 4
  %23 = load i32, ptr %4, align 4
  call void %20(ptr noundef %21, i32 noundef %22, i32 noundef %23)
  %24 = load ptr, ptr %5, align 8
  ret ptr %24
}

; Function Attrs: nounwind uwtable
define internal void @gtk3_paint_arrow(i32 noundef %0, i32 noundef %1, i32 noundef %2, ptr noundef %3, i32 noundef %4, i32 noundef %5, i32 noundef %6, i32 noundef %7, i32 noundef %8, i32 noundef %9) #0 {
  %11 = alloca i32, align 4
  %12 = alloca i32, align 4
  %13 = alloca i32, align 4
  %14 = alloca ptr, align 8
  %15 = alloca i32, align 4
  %16 = alloca i32, align 4
  %17 = alloca i32, align 4
  %18 = alloca i32, align 4
  %19 = alloca i32, align 4
  %20 = alloca i32, align 4
  %21 = alloca double, align 8
  %22 = alloca double, align 8
  %23 = alloca double, align 8
  %24 = alloca i32, align 4
  %25 = alloca ptr, align 8
  %26 = alloca i32, align 4
  store i32 %0, ptr %11, align 4
  store i32 %1, ptr %12, align 4
  store i32 %2, ptr %13, align 4
  store ptr %3, ptr %14, align 8
  store i32 %4, ptr %15, align 4
  store i32 %5, ptr %16, align 4
  store i32 %6, ptr %17, align 4
  store i32 %7, ptr %18, align 4
  store i32 %8, ptr %19, align 4
  store i32 %9, ptr %20, align 4
  store double 0x400921FB54442D18, ptr %23, align 8
  %27 = load i32, ptr %17, align 4
  store i32 %27, ptr %24, align 4
  %28 = load i32, ptr %19, align 4
  %29 = load i32, ptr %13, align 4
  %30 = call ptr @gtk3_get_arrow(i32 noundef %28, i32 noundef %29)
  store ptr %30, ptr @gtk3_widget, align 8
  %31 = load i32, ptr %11, align 4
  switch i32 %31, label %160 [
    i32 42, label %32
    i32 14, label %47
    i32 15, label %63
    i32 65, label %79
    i32 66, label %95
    i32 5, label %111
    i32 49, label %125
    i32 30, label %140
  ]

32:                                               ; preds = %10
  %33 = load i32, ptr %17, align 4
  %34 = sitofp i32 %33 to double
  %35 = call double @llvm.fmuladd.f64(double 4.000000e-01, double %34, double 5.000000e-01)
  %36 = fptosi double %35 to i32
  %37 = add nsw i32 %36, 1
  store i32 %37, ptr %24, align 4
  %38 = load i32, ptr %19, align 4
  %39 = icmp eq i32 %38, 0
  br i1 %39, label %40, label %41

40:                                               ; preds = %32
  store double 0.000000e+00, ptr %23, align 8
  br label %46

41:                                               ; preds = %32
  %42 = load i32, ptr %19, align 4
  %43 = icmp eq i32 %42, 1
  br i1 %43, label %44, label %45

44:                                               ; preds = %41
  store double 0x400921FB54442D18, ptr %23, align 8
  br label %45

45:                                               ; preds = %44, %41
  br label %46

46:                                               ; preds = %45, %40
  br label %180

47:                                               ; preds = %10
  %48 = load i32, ptr %18, align 4
  %49 = load i32, ptr %17, align 4
  %50 = mul nsw i32 %49, 2
  %51 = icmp slt i32 %48, %50
  br i1 %51, label %52, label %54

52:                                               ; preds = %47
  %53 = load i32, ptr %18, align 4
  br label %57

54:                                               ; preds = %47
  %55 = load i32, ptr %17, align 4
  %56 = mul nsw i32 %55, 2
  br label %57

57:                                               ; preds = %54, %52
  %58 = phi i32 [ %53, %52 ], [ %56, %54 ]
  %59 = sitofp i32 %58 to double
  %60 = call double @llvm.fmuladd.f64(double 5.000000e-01, double %59, double 5.000000e-01)
  %61 = fptosi double %60 to i32
  %62 = add nsw i32 %61, 1
  store i32 %62, ptr %24, align 4
  store double 0x4012D97C7F3321D2, ptr %23, align 8
  br label %180

63:                                               ; preds = %10
  %64 = load i32, ptr %18, align 4
  %65 = load i32, ptr %17, align 4
  %66 = mul nsw i32 %65, 2
  %67 = icmp slt i32 %64, %66
  br i1 %67, label %68, label %70

68:                                               ; preds = %63
  %69 = load i32, ptr %18, align 4
  br label %73

70:                                               ; preds = %63
  %71 = load i32, ptr %17, align 4
  %72 = mul nsw i32 %71, 2
  br label %73

73:                                               ; preds = %70, %68
  %74 = phi i32 [ %69, %68 ], [ %72, %70 ]
  %75 = sitofp i32 %74 to double
  %76 = call double @llvm.fmuladd.f64(double 5.000000e-01, double %75, double 5.000000e-01)
  %77 = fptosi double %76 to i32
  %78 = add nsw i32 %77, 1
  store i32 %78, ptr %24, align 4
  store double 0x3FF921FB54442D18, ptr %23, align 8
  br label %180

79:                                               ; preds = %10
  %80 = load i32, ptr %18, align 4
  %81 = mul nsw i32 %80, 2
  %82 = load i32, ptr %17, align 4
  %83 = icmp slt i32 %81, %82
  br i1 %83, label %84, label %87

84:                                               ; preds = %79
  %85 = load i32, ptr %18, align 4
  %86 = mul nsw i32 %85, 2
  br label %89

87:                                               ; preds = %79
  %88 = load i32, ptr %17, align 4
  br label %89

89:                                               ; preds = %87, %84
  %90 = phi i32 [ %86, %84 ], [ %88, %87 ]
  %91 = sitofp i32 %90 to double
  %92 = call double @llvm.fmuladd.f64(double 5.000000e-01, double %91, double 5.000000e-01)
  %93 = fptosi double %92 to i32
  %94 = add nsw i32 %93, 1
  store i32 %94, ptr %24, align 4
  store double 0.000000e+00, ptr %23, align 8
  br label %180

95:                                               ; preds = %10
  %96 = load i32, ptr %18, align 4
  %97 = mul nsw i32 %96, 2
  %98 = load i32, ptr %17, align 4
  %99 = icmp slt i32 %97, %98
  br i1 %99, label %100, label %103

100:                                              ; preds = %95
  %101 = load i32, ptr %18, align 4
  %102 = mul nsw i32 %101, 2
  br label %105

103:                                              ; preds = %95
  %104 = load i32, ptr %17, align 4
  br label %105

105:                                              ; preds = %103, %100
  %106 = phi i32 [ %102, %100 ], [ %104, %103 ]
  %107 = sitofp i32 %106 to double
  %108 = call double @llvm.fmuladd.f64(double 5.000000e-01, double %107, double 5.000000e-01)
  %109 = fptosi double %108 to i32
  %110 = add nsw i32 %109, 1
  store i32 %110, ptr %24, align 4
  store double 0x400921FB54442D18, ptr %23, align 8
  br label %180

111:                                              ; preds = %10
  %112 = load i32, ptr %18, align 4
  %113 = load i32, ptr %17, align 4
  %114 = icmp slt i32 %112, %113
  br i1 %114, label %115, label %117

115:                                              ; preds = %111
  %116 = load i32, ptr %18, align 4
  br label %119

117:                                              ; preds = %111
  %118 = load i32, ptr %17, align 4
  br label %119

119:                                              ; preds = %117, %115
  %120 = phi i32 [ %116, %115 ], [ %118, %117 ]
  %121 = sitofp i32 %120 to double
  %122 = call double @llvm.fmuladd.f64(double 3.000000e-01, double %121, double 5.000000e-01)
  %123 = fptosi double %122 to i32
  %124 = add nsw i32 %123, 1
  store i32 %124, ptr %24, align 4
  store double 0x400921FB54442D18, ptr %23, align 8
  br label %180

125:                                              ; preds = %10
  %126 = load i32, ptr %18, align 4
  %127 = sitofp i32 %126 to double
  %128 = call double @llvm.fmuladd.f64(double 8.000000e-01, double %127, double 5.000000e-01)
  %129 = fptosi double %128 to i32
  %130 = add nsw i32 %129, 1
  store i32 %130, ptr %24, align 4
  %131 = load i32, ptr %19, align 4
  %132 = icmp eq i32 %131, 0
  br i1 %132, label %133, label %134

133:                                              ; preds = %125
  store double 0x400921FB54442D18, ptr %23, align 8
  br label %139

134:                                              ; preds = %125
  %135 = load i32, ptr %19, align 4
  %136 = icmp eq i32 %135, 1
  br i1 %136, label %137, label %138

137:                                              ; preds = %134
  store double 0.000000e+00, ptr %23, align 8
  br label %138

138:                                              ; preds = %137, %134
  br label %139

139:                                              ; preds = %138, %133
  br label %180

140:                                              ; preds = %10
  %141 = load i32, ptr %19, align 4
  %142 = icmp eq i32 %141, 0
  br i1 %142, label %143, label %144

143:                                              ; preds = %140
  store double 0x400921FB54442D18, ptr %23, align 8
  br label %159

144:                                              ; preds = %140
  %145 = load i32, ptr %19, align 4
  %146 = icmp eq i32 %145, 1
  br i1 %146, label %147, label %148

147:                                              ; preds = %144
  store double 0.000000e+00, ptr %23, align 8
  br label %158

148:                                              ; preds = %144
  %149 = load i32, ptr %19, align 4
  %150 = icmp eq i32 %149, 3
  br i1 %150, label %151, label %152

151:                                              ; preds = %148
  store double 0x3FF921FB54442D18, ptr %23, align 8
  br label %157

152:                                              ; preds = %148
  %153 = load i32, ptr %19, align 4
  %154 = icmp eq i32 %153, 2
  br i1 %154, label %155, label %156

155:                                              ; preds = %152
  store double 0x4012D97C7F3321D2, ptr %23, align 8
  br label %156

156:                                              ; preds = %155, %152
  br label %157

157:                                              ; preds = %156, %151
  br label %158

158:                                              ; preds = %157, %147
  br label %159

159:                                              ; preds = %158, %143
  br label %180

160:                                              ; preds = %10
  %161 = load i32, ptr %19, align 4
  %162 = icmp eq i32 %161, 0
  br i1 %162, label %163, label %164

163:                                              ; preds = %160
  store double 0x400921FB54442D18, ptr %23, align 8
  br label %179

164:                                              ; preds = %160
  %165 = load i32, ptr %19, align 4
  %166 = icmp eq i32 %165, 1
  br i1 %166, label %167, label %168

167:                                              ; preds = %164
  store double 0.000000e+00, ptr %23, align 8
  br label %178

168:                                              ; preds = %164
  %169 = load i32, ptr %19, align 4
  %170 = icmp eq i32 %169, 3
  br i1 %170, label %171, label %172

171:                                              ; preds = %168
  store double 0x3FF921FB54442D18, ptr %23, align 8
  br label %177

172:                                              ; preds = %168
  %173 = load i32, ptr %19, align 4
  %174 = icmp eq i32 %173, 2
  br i1 %174, label %175, label %176

175:                                              ; preds = %172
  store double 0x4012D97C7F3321D2, ptr %23, align 8
  br label %176

176:                                              ; preds = %175, %172
  br label %177

177:                                              ; preds = %176, %171
  br label %178

178:                                              ; preds = %177, %167
  br label %179

179:                                              ; preds = %178, %163
  br label %180

180:                                              ; preds = %179, %159, %139, %119, %105, %89, %73, %57, %46
  %181 = load i32, ptr %24, align 4
  %182 = load i32, ptr %17, align 4
  %183 = icmp slt i32 %181, %182
  br i1 %183, label %184, label %205

184:                                              ; preds = %180
  %185 = load i32, ptr %24, align 4
  %186 = load i32, ptr %18, align 4
  %187 = icmp slt i32 %185, %186
  br i1 %187, label %188, label %205

188:                                              ; preds = %184
  %189 = load i32, ptr %15, align 4
  %190 = sitofp i32 %189 to double
  %191 = load i32, ptr %17, align 4
  %192 = load i32, ptr %24, align 4
  %193 = sub nsw i32 %191, %192
  %194 = sitofp i32 %193 to double
  %195 = call double @llvm.fmuladd.f64(double 5.000000e-01, double %194, double 5.000000e-01)
  %196 = fadd double %190, %195
  store double %196, ptr %21, align 8
  %197 = load i32, ptr %16, align 4
  %198 = sitofp i32 %197 to double
  %199 = load i32, ptr %18, align 4
  %200 = load i32, ptr %24, align 4
  %201 = sub nsw i32 %199, %200
  %202 = sitofp i32 %201 to double
  %203 = call double @llvm.fmuladd.f64(double 5.000000e-01, double %202, double 5.000000e-01)
  %204 = fadd double %198, %203
  store double %204, ptr %22, align 8
  br label %210

205:                                              ; preds = %184, %180
  %206 = load i32, ptr %15, align 4
  %207 = sitofp i32 %206 to double
  store double %207, ptr %21, align 8
  %208 = load i32, ptr %16, align 4
  %209 = sitofp i32 %208 to double
  store double %209, ptr %22, align 8
  br label %210

210:                                              ; preds = %205, %188
  %211 = load ptr, ptr @fp_gtk_widget_get_style_context, align 8
  %212 = load ptr, ptr @gtk3_widget, align 8
  %213 = call ptr %211(ptr noundef %212)
  store ptr %213, ptr %25, align 8
  %214 = load ptr, ptr @fp_gtk_style_context_save, align 8
  %215 = load ptr, ptr %25, align 8
  call void %214(ptr noundef %215)
  %216 = load ptr, ptr %14, align 8
  %217 = icmp ne ptr %216, null
  br i1 %217, label %218, label %221

218:                                              ; preds = %210
  %219 = load ptr, ptr %14, align 8
  %220 = load ptr, ptr %25, align 8
  call void @transform_detail_string(ptr noundef %219, ptr noundef %220)
  br label %221

221:                                              ; preds = %218, %210
  %222 = load i32, ptr %12, align 4
  %223 = call i32 @get_gtk_flags(i32 noundef %222)
  store i32 %223, ptr %26, align 4
  %224 = load ptr, ptr @fp_gtk_style_context_set_state, align 8
  %225 = load ptr, ptr %25, align 8
  %226 = load i32, ptr %26, align 4
  call void %224(ptr noundef %225, i32 noundef %226)
  %227 = load ptr, ptr @fp_gtk_render_arrow, align 8
  %228 = load ptr, ptr %25, align 8
  %229 = load ptr, ptr @cr, align 8
  %230 = load double, ptr %23, align 8
  %231 = load double, ptr %21, align 8
  %232 = load double, ptr %22, align 8
  %233 = load i32, ptr %24, align 4
  %234 = sitofp i32 %233 to double
  call void %227(ptr noundef %228, ptr noundef %229, double noundef %230, double noundef %231, double noundef %232, double noundef %234)
  %235 = load ptr, ptr @fp_gtk_style_context_restore, align 8
  %236 = load ptr, ptr %25, align 8
  call void %235(ptr noundef %236)
  ret void
}