; Function Attrs: nounwind uwtable
define internal void @gtk3_paint_arrow(i32 noundef %0, i32 noundef %1, i32 noundef %2, ptr noundef %3, i32 noundef %4, i32 noundef %5, i32 noundef %6, i32 noundef %7, i32 noundef %8, i32 %9) #0 {
  %11 = load ptr, ptr @gtk3_widgets, align 16
  %12 = icmp eq ptr %11, null
  br i1 %12, label %13, label %gtk3_get_arrow.exit

13:                                               ; preds = %10
  %14 = load ptr, ptr @fp_gtk_arrow_new, align 8
  %15 = tail call ptr %14(i32 noundef %8, i32 noundef %2) #19
  store ptr %15, ptr @gtk3_widgets, align 16
  %16 = load ptr, ptr @fp_gtk_container_add, align 8
  %17 = load ptr, ptr @gtk3_fixed, align 8
  tail call void %16(ptr noundef %17, ptr noundef %15) #19
  %18 = load ptr, ptr @fp_gtk_widget_realize, align 8
  %19 = load ptr, ptr @gtk3_widgets, align 16
  tail call void %18(ptr noundef %19) #19
  %.pre.i = load ptr, ptr @gtk3_widgets, align 16
  br label %gtk3_get_arrow.exit

gtk3_get_arrow.exit:                              ; preds = %10, %13
  %20 = phi ptr [ %.pre.i, %13 ], [ %11, %10 ]
  %21 = load ptr, ptr @fp_gtk_arrow_set, align 8
  tail call void %21(ptr noundef %20, i32 noundef %8, i32 noundef %2) #19
  store ptr %20, ptr @gtk3_widget, align 8
  switch i32 %0, label %58 [
    i32 42, label %22
    i32 14, label %26
    i32 15, label %31
    i32 65, label %36
    i32 66, label %41
    i32 5, label %46
    i32 49, label %50
    i32 30, label %54
  ]

22:                                               ; preds = %gtk3_get_arrow.exit
  %23 = sitofp i32 %6 to double
  %24 = tail call double @llvm.fmuladd.f64(double %23, double 4.000000e-01, double 5.000000e-01)
  switch i32 %8, label %.fold.split [
    i32 0, label %62
    i32 1, label %25
  ]

25:                                               ; preds = %22
  br label %62

26:                                               ; preds = %gtk3_get_arrow.exit
  %27 = shl nsw i32 %6, 1
  %28 = tail call i32 @llvm.smin.i32(i32 %27, i32 %7)
  %29 = sitofp i32 %28 to double
  %30 = tail call double @llvm.fmuladd.f64(double %29, double 5.000000e-01, double 5.000000e-01)
  br label %62

31:                                               ; preds = %gtk3_get_arrow.exit
  %32 = shl nsw i32 %6, 1
  %33 = tail call i32 @llvm.smin.i32(i32 %32, i32 %7)
  %34 = sitofp i32 %33 to double
  %35 = tail call double @llvm.fmuladd.f64(double %34, double 5.000000e-01, double 5.000000e-01)
  br label %62

36:                                               ; preds = %gtk3_get_arrow.exit
  %37 = shl nsw i32 %7, 1
  %38 = tail call i32 @llvm.smin.i32(i32 %37, i32 %6)
  %39 = sitofp i32 %38 to double
  %40 = tail call double @llvm.fmuladd.f64(double %39, double 5.000000e-01, double 5.000000e-01)
  br label %62

41:                                               ; preds = %gtk3_get_arrow.exit
  %42 = shl nsw i32 %7, 1
  %43 = tail call i32 @llvm.smin.i32(i32 %42, i32 %6)
  %44 = sitofp i32 %43 to double
  %45 = tail call double @llvm.fmuladd.f64(double %44, double 5.000000e-01, double 5.000000e-01)
  br label %62

46:                                               ; preds = %gtk3_get_arrow.exit
  %47 = tail call i32 @llvm.smin.i32(i32 %7, i32 %6)
  %48 = sitofp i32 %47 to double
  %49 = tail call double @llvm.fmuladd.f64(double %48, double 3.000000e-01, double 5.000000e-01)
  br label %62

50:                                               ; preds = %gtk3_get_arrow.exit
  %51 = sitofp i32 %7 to double
  %52 = tail call double @llvm.fmuladd.f64(double %51, double 8.000000e-01, double 5.000000e-01)
  %cond = icmp eq i32 %8, 1
  br i1 %cond, label %53, label %62

53:                                               ; preds = %50
  br label %62

54:                                               ; preds = %gtk3_get_arrow.exit
  switch i32 %8, label %.thread [
    i32 2, label %57
    i32 1, label %55
    i32 3, label %56
  ]

55:                                               ; preds = %54
  br label %.thread

56:                                               ; preds = %54
  br label %.thread

57:                                               ; preds = %54
  br label %.thread

58:                                               ; preds = %gtk3_get_arrow.exit
  switch i32 %8, label %.thread [
    i32 2, label %61
    i32 1, label %59
    i32 3, label %60
  ]

59:                                               ; preds = %58
  br label %.thread

60:                                               ; preds = %58
  br label %.thread

61:                                               ; preds = %58
  br label %.thread

.fold.split:                                      ; preds = %22
  br label %62

62:                                               ; preds = %50, %22, %.fold.split, %53, %25, %46, %41, %36, %31, %26
  %.064 = phi double [ 0.000000e+00, %53 ], [ 0x400921FB54442D18, %46 ], [ 0x400921FB54442D18, %41 ], [ 0.000000e+00, %36 ], [ 0x3FF921FB54442D18, %31 ], [ 0x4012D97C7F3321D2, %26 ], [ 0x400921FB54442D18, %25 ], [ 0.000000e+00, %22 ], [ 0x400921FB54442D18, %.fold.split ], [ 0x400921FB54442D18, %50 ]
  %.063.in.in = phi double [ %52, %53 ], [ %49, %46 ], [ %45, %41 ], [ %40, %36 ], [ %35, %31 ], [ %30, %26 ], [ %24, %25 ], [ %24, %22 ], [ %24, %.fold.split ], [ %52, %50 ]
  %.063.in = fptosi double %.063.in.in to i32
  %.063 = add nsw i32 %.063.in, 1
  %63 = icmp slt i32 %.063, %6
  %64 = icmp slt i32 %.063, %7
  %or.cond = and i1 %63, %64
  br i1 %or.cond, label %65, label %.thread

65:                                               ; preds = %62
  %66 = insertelement <2 x i32> poison, i32 %5, i64 0
  %67 = insertelement <2 x i32> %66, i32 %4, i64 1
  %68 = sitofp <2 x i32> %67 to <2 x double>
  %69 = insertelement <2 x i32> poison, i32 %7, i64 0
  %70 = insertelement <2 x i32> %69, i32 %6, i64 1
  %71 = insertelement <2 x i32> poison, i32 %.063, i64 0
  %72 = shufflevector <2 x i32> %71, <2 x i32> poison, <2 x i32> zeroinitializer
  %73 = sub nsw <2 x i32> %70, %72
  %74 = sitofp <2 x i32> %73 to <2 x double>
  %75 = tail call <2 x double> @llvm.fmuladd.v2f64(<2 x double> %74, <2 x double> <double 5.000000e-01, double 5.000000e-01>, <2 x double> <double 5.000000e-01, double 5.000000e-01>)
  %76 = fadd <2 x double> %75, %68
  br label %80

.thread:                                          ; preds = %58, %54, %57, %56, %55, %61, %60, %59, %62
  %.06375 = phi i32 [ %.063, %62 ], [ %6, %59 ], [ %6, %60 ], [ %6, %61 ], [ %6, %55 ], [ %6, %56 ], [ %6, %57 ], [ %6, %54 ], [ %6, %58 ]
  %.06473 = phi double [ %.064, %62 ], [ 0.000000e+00, %59 ], [ 0x3FF921FB54442D18, %60 ], [ 0x4012D97C7F3321D2, %61 ], [ 0.000000e+00, %55 ], [ 0x3FF921FB54442D18, %56 ], [ 0x4012D97C7F3321D2, %57 ], [ 0x400921FB54442D18, %54 ], [ 0x400921FB54442D18, %58 ]
  %77 = insertelement <2 x i32> poison, i32 %5, i64 0
  %78 = insertelement <2 x i32> %77, i32 %4, i64 1
  %79 = sitofp <2 x i32> %78 to <2 x double>
  br label %80

80:                                               ; preds = %.thread, %65
  %.06374 = phi i32 [ %.063, %65 ], [ %.06375, %.thread ]
  %.06472 = phi double [ %.064, %65 ], [ %.06473, %.thread ]
  %81 = phi <2 x double> [ %76, %65 ], [ %79, %.thread ]
  %82 = load ptr, ptr @fp_gtk_widget_get_style_context, align 8
  %83 = tail call ptr %82(ptr noundef %20) #19
  %84 = load ptr, ptr @fp_gtk_style_context_save, align 8
  tail call void %84(ptr noundef %83) #19
  %.not = icmp eq ptr %3, null
  br i1 %.not, label %86, label %85

85:                                               ; preds = %80
  tail call fastcc void @transform_detail_string(ptr noundef nonnull %3, ptr noundef %83)
  br label %86

86:                                               ; preds = %85, %80
  %switch.tableidx = add i32 %1, -1
  %87 = icmp ult i32 %switch.tableidx, 6
  br i1 %87, label %switch.lookup, label %get_gtk_flags.exit

switch.lookup:                                    ; preds = %86
  %88 = zext nneg i32 %switch.tableidx to i64
  %switch.gep = getelementptr inbounds [6 x i32], ptr @switch.table.gtk3_paint_background, i64 0, i64 %88
  %switch.load = load i32, ptr %switch.gep, align 4
  br label %get_gtk_flags.exit

get_gtk_flags.exit:                               ; preds = %switch.lookup, %86
  %.0.i = phi i32 [ 0, %86 ], [ %switch.load, %switch.lookup ]
  %89 = load ptr, ptr @fp_gtk_style_context_set_state, align 8
  tail call void %89(ptr noundef %83, i32 noundef %.0.i) #19
  %90 = load ptr, ptr @fp_gtk_render_arrow, align 8
  %91 = load ptr, ptr @cr, align 8
  %92 = sitofp i32 %.06374 to double
  %93 = extractelement <2 x double> %81, i64 0
  %94 = extractelement <2 x double> %81, i64 1
  tail call void %90(ptr noundef %83, ptr noundef %91, double noundef %.06472, double noundef %94, double noundef %93, double noundef %92) #19
  %95 = load ptr, ptr @fp_gtk_style_context_restore, align 8
  tail call void %95(ptr noundef %83) #19
  ret void
}